
build/thuemorse32:     file format elf32-littleriscv


Disassembly of section .text.init:

00000000 <_start>:
   0:	00000093          	li	ra,0
   4:	00000113          	li	sp,0
   8:	00000193          	li	gp,0
   c:	00000213          	li	tp,0
  10:	00000293          	li	t0,0
  14:	00000313          	li	t1,0
  18:	00000393          	li	t2,0
  1c:	00000413          	li	s0,0
  20:	00000493          	li	s1,0
  24:	00000513          	li	a0,0
  28:	00000593          	li	a1,0
  2c:	00000613          	li	a2,0
  30:	00000693          	li	a3,0
  34:	00000713          	li	a4,0
  38:	00000793          	li	a5,0
  3c:	00000813          	li	a6,0
  40:	00000893          	li	a7,0
  44:	00000913          	li	s2,0
  48:	00000993          	li	s3,0
  4c:	00000a13          	li	s4,0
  50:	00000a93          	li	s5,0
  54:	00000b13          	li	s6,0
  58:	00000b93          	li	s7,0
  5c:	00000c13          	li	s8,0
  60:	00000c93          	li	s9,0
  64:	00000d13          	li	s10,0
  68:	00000d93          	li	s11,0
  6c:	00000e13          	li	t3,0
  70:	00000e93          	li	t4,0
  74:	00000f13          	li	t5,0
  78:	00000f93          	li	t6,0
  7c:	01000137          	lui	sp,0x1000
  80:	ff010113          	addi	sp,sp,-16 # fffff0 <_end+0xffdfe4>
  84:	068010ef          	jal	ra,10ec <main>
  88:	00000513          	li	a0,0
  8c:	0f4010ef          	jal	ra,1180 <exit>
  90:	0000006f          	j	90 <_start+0x90>

Disassembly of section .text:

00001000 <compter_uns>:
    1000:	fd010113          	addi	sp,sp,-48
    1004:	02812623          	sw	s0,44(sp)
    1008:	03010413          	addi	s0,sp,48
    100c:	fca42e23          	sw	a0,-36(s0)
    1010:	fe042623          	sw	zero,-20(s0)
    1014:	0540006f          	j	1068 <compter_uns+0x68>
    1018:	fdc42703          	lw	a4,-36(s0)
    101c:	41f75793          	srai	a5,a4,0x1f
    1020:	01f7d793          	srli	a5,a5,0x1f
    1024:	00f70733          	add	a4,a4,a5
    1028:	00177713          	andi	a4,a4,1
    102c:	40f707b3          	sub	a5,a4,a5
    1030:	00078713          	mv	a4,a5
    1034:	fec42783          	lw	a5,-20(s0)
    1038:	00f70733          	add	a4,a4,a5
    103c:	41f75793          	srai	a5,a4,0x1f
    1040:	01f7d793          	srli	a5,a5,0x1f
    1044:	00f70733          	add	a4,a4,a5
    1048:	00177713          	andi	a4,a4,1
    104c:	40f707b3          	sub	a5,a4,a5
    1050:	fef42623          	sw	a5,-20(s0)
    1054:	fdc42783          	lw	a5,-36(s0)
    1058:	01f7d713          	srli	a4,a5,0x1f
    105c:	00f707b3          	add	a5,a4,a5
    1060:	4017d793          	srai	a5,a5,0x1
    1064:	fcf42e23          	sw	a5,-36(s0)
    1068:	fdc42783          	lw	a5,-36(s0)
    106c:	fa0796e3          	bnez	a5,1018 <compter_uns+0x18>
    1070:	fec42783          	lw	a5,-20(s0)
    1074:	00078513          	mv	a0,a5
    1078:	02c12403          	lw	s0,44(sp)
    107c:	03010113          	addi	sp,sp,48
    1080:	00008067          	ret

00001084 <thuemorse>:
    1084:	fd010113          	addi	sp,sp,-48
    1088:	02112623          	sw	ra,44(sp)
    108c:	02812423          	sw	s0,40(sp)
    1090:	03010413          	addi	s0,sp,48
    1094:	fca42e23          	sw	a0,-36(s0)
    1098:	fe042623          	sw	zero,-20(s0)
    109c:	0280006f          	j	10c4 <thuemorse+0x40>
    10a0:	fec42503          	lw	a0,-20(s0)
    10a4:	f5dff0ef          	jal	ra,1000 <compter_uns>
    10a8:	00050793          	mv	a5,a0
    10ac:	03078793          	addi	a5,a5,48
    10b0:	00078513          	mv	a0,a5
    10b4:	094000ef          	jal	ra,1148 <putchar>
    10b8:	fec42783          	lw	a5,-20(s0)
    10bc:	00178793          	addi	a5,a5,1
    10c0:	fef42623          	sw	a5,-20(s0)
    10c4:	fec42703          	lw	a4,-20(s0)
    10c8:	fdc42783          	lw	a5,-36(s0)
    10cc:	fcf74ae3          	blt	a4,a5,10a0 <thuemorse+0x1c>
    10d0:	00a00513          	li	a0,10
    10d4:	074000ef          	jal	ra,1148 <putchar>
    10d8:	00000013          	nop
    10dc:	02c12083          	lw	ra,44(sp)
    10e0:	02812403          	lw	s0,40(sp)
    10e4:	03010113          	addi	sp,sp,48
    10e8:	00008067          	ret

000010ec <main>:
    10ec:	ff010113          	addi	sp,sp,-16
    10f0:	00112623          	sw	ra,12(sp)
    10f4:	00812423          	sw	s0,8(sp)
    10f8:	01010413          	addi	s0,sp,16
    10fc:	08000513          	li	a0,128
    1100:	f85ff0ef          	jal	ra,1084 <thuemorse>
    1104:	00000793          	li	a5,0
    1108:	00078513          	mv	a0,a5
    110c:	00c12083          	lw	ra,12(sp)
    1110:	00812403          	lw	s0,8(sp)
    1114:	01010113          	addi	sp,sp,16
    1118:	00008067          	ret

0000111c <getchar>:
    111c:	ff010113          	addi	sp,sp,-16
    1120:	00812623          	sw	s0,12(sp)
    1124:	01010413          	addi	s0,sp,16
    1128:	00001797          	auipc	a5,0x1
    112c:	edc78793          	addi	a5,a5,-292 # 2004 <GET_ADDR>
    1130:	0007a783          	lw	a5,0(a5)
    1134:	0007a783          	lw	a5,0(a5)
    1138:	00078513          	mv	a0,a5
    113c:	00c12403          	lw	s0,12(sp)
    1140:	01010113          	addi	sp,sp,16
    1144:	00008067          	ret

00001148 <putchar>:
    1148:	fe010113          	addi	sp,sp,-32
    114c:	00812e23          	sw	s0,28(sp)
    1150:	02010413          	addi	s0,sp,32
    1154:	fea42623          	sw	a0,-20(s0)
    1158:	00001797          	auipc	a5,0x1
    115c:	ea878793          	addi	a5,a5,-344 # 2000 <PUT_ADDR>
    1160:	0007a783          	lw	a5,0(a5)
    1164:	fec42703          	lw	a4,-20(s0)
    1168:	00e7a023          	sw	a4,0(a5)
    116c:	fec42783          	lw	a5,-20(s0)
    1170:	00078513          	mv	a0,a5
    1174:	01c12403          	lw	s0,28(sp)
    1178:	02010113          	addi	sp,sp,32
    117c:	00008067          	ret

00001180 <exit>:
    1180:	fe010113          	addi	sp,sp,-32
    1184:	00812e23          	sw	s0,28(sp)
    1188:	02010413          	addi	s0,sp,32
    118c:	fea42623          	sw	a0,-20(s0)
    1190:	00001797          	auipc	a5,0x1
    1194:	e7878793          	addi	a5,a5,-392 # 2008 <FINISH_ADDR>
    1198:	0007a783          	lw	a5,0(a5)
    119c:	fec42703          	lw	a4,-20(s0)
    11a0:	00e7a023          	sw	a4,0(a5)
    11a4:	fec42783          	lw	a5,-20(s0)
    11a8:	00078513          	mv	a0,a5
    11ac:	01c12403          	lw	s0,28(sp)
    11b0:	02010113          	addi	sp,sp,32
    11b4:	00008067          	ret
